target datalayout = "e-m:e-p270:32:32-p271:32:32-p272:64:64-i64:64-i128:128-f80:128-n8:16:32:64-S128"
target triple = "x86_64-pc-linux-gnu"

%struct._object = type { %union.anon, ptr }
%union.anon = type { i64 }
%struct._typeobject = type { %struct.PyVarObject, ptr, i64, i64, ptr, i64, ptr, ptr, ptr, ptr, ptr, ptr, ptr, ptr, ptr, ptr, ptr, ptr, ptr, i64, ptr, ptr, ptr, ptr, i64, ptr, ptr, ptr, ptr, ptr, ptr, ptr, ptr, ptr, i64, ptr, ptr, ptr, ptr, ptr, ptr, ptr, ptr, ptr, ptr, ptr, i32, ptr, ptr, i8, i16 }
%struct.PyVarObject = type { %struct._object, i64 }
%struct._hashlibstate = type { ptr, ptr, ptr, ptr, ptr, ptr }

@.str.118 = private unnamed_addr constant [25 x i8] c"Unsupported digestmod %R\00", align 1

; Function Attrs: inlinehint nounwind uwtable
define internal ptr @get_hashlib_state(ptr noundef %0) #4 {
  %2 = alloca ptr, align 8
  %3 = alloca ptr, align 8
  store ptr %0, ptr %2, align 8, !tbaa !14
  call void @llvm.lifetime.start.p0(i64 8, ptr %3) #9
  %4 = load ptr, ptr %2, align 8, !tbaa !14
  %5 = call ptr @PyModule_GetState(ptr noundef %4)
  store ptr %5, ptr %3, align 8, !tbaa !3
  %6 = load ptr, ptr %3, align 8, !tbaa !3
  call void @llvm.lifetime.end.p0(i64 8, ptr %3) #9
  ret ptr %6
}

; Function Attrs: inlinehint nounwind uwtable
define internal i32 @PyType_HasFeature(ptr noundef %0, i64 noundef %1) #4 {
  %3 = alloca ptr, align 8
  %4 = alloca i64, align 8
  %5 = alloca i64, align 8
  store ptr %0, ptr %3, align 8, !tbaa !16
  store i64 %1, ptr %4, align 8, !tbaa !32
  call void @llvm.lifetime.start.p0(i64 8, ptr %5) #9
  %6 = load ptr, ptr %3, align 8, !tbaa !16
  %7 = getelementptr inbounds nuw %struct._typeobject, ptr %6, i32 0, i32 19
  %8 = load i64, ptr %7, align 8, !tbaa !44
  store i64 %8, ptr %5, align 8, !tbaa !32
  %9 = load i64, ptr %5, align 8, !tbaa !32
  %10 = load i64, ptr %4, align 8, !tbaa !32
  %11 = and i64 %9, %10
  %12 = icmp ne i64 %11, 0
  %13 = zext i1 %12 to i32
  call void @llvm.lifetime.end.p0(i64 8, ptr %5) #9
  ret i32 %13
}

; Function Attrs: inlinehint nounwind uwtable
define internal ptr @_Py_TYPE(ptr noundef %0) #4 {
  %2 = alloca ptr, align 8
  store ptr %0, ptr %2, align 8, !tbaa !14
  %3 = load ptr, ptr %2, align 8, !tbaa !14
  %4 = getelementptr inbounds nuw %struct._object, ptr %3, i32 0, i32 1
  %5 = load ptr, ptr %4, align 8, !tbaa !29
  ret ptr %5
}

; Function Attrs: nounwind uwtable
define internal ptr @py_digest_by_digestmod(ptr noundef %0, ptr noundef %1, i32 noundef %2) #0 {
  %4 = alloca ptr, align 8
  %5 = alloca ptr, align 8
  %6 = alloca ptr, align 8
  %7 = alloca i32, align 4
  %8 = alloca ptr, align 8
  %9 = alloca ptr, align 8
  %10 = alloca ptr, align 8
  %11 = alloca ptr, align 8
  %12 = alloca ptr, align 8
  %13 = alloca i32, align 4
  store ptr %0, ptr %5, align 8, !tbaa !14
  store ptr %1, ptr %6, align 8, !tbaa !14
  store i32 %2, ptr %7, align 4, !tbaa !19
  call void @llvm.lifetime.start.p0(i64 8, ptr %8) #9
  call void @llvm.lifetime.start.p0(i64 8, ptr %9) #9
  store ptr null, ptr %9, align 8, !tbaa !14
  call void @llvm.lifetime.start.p0(i64 8, ptr %10) #9
  %14 = load ptr, ptr %6, align 8, !tbaa !14
  %15 = call ptr @_Py_TYPE(ptr noundef %14)
  %16 = call i32 @PyType_HasFeature(ptr noundef %15, i64 noundef 268435456)
  %17 = icmp ne i32 %16, 0
  br i1 %17, label %18, label %20

18:                                               ; preds = %3
  %19 = load ptr, ptr %6, align 8, !tbaa !14
  store ptr %19, ptr %9, align 8, !tbaa !14
  br label %28

20:                                               ; preds = %3
  call void @llvm.lifetime.start.p0(i64 8, ptr %11) #9
  %21 = load ptr, ptr %5, align 8, !tbaa !14
  %22 = call ptr @get_hashlib_state(ptr noundef %21)
  store ptr %22, ptr %11, align 8, !tbaa !3
  %23 = load ptr, ptr %11, align 8, !tbaa !3
  %24 = getelementptr inbounds nuw %struct._hashlibstate, ptr %23, i32 0, i32 3
  %25 = load ptr, ptr %24, align 8, !tbaa !62
  %26 = load ptr, ptr %6, align 8, !tbaa !14
  %27 = call ptr @PyDict_GetItemWithError(ptr noundef %25, ptr noundef %26)
  store ptr %27, ptr %9, align 8, !tbaa !14
  call void @llvm.lifetime.end.p0(i64 8, ptr %11) #9
  br label %28

28:                                               ; preds = %20, %18
  %29 = load ptr, ptr %9, align 8, !tbaa !14
  %30 = icmp eq ptr %29, null
  br i1 %30, label %31, label %43

31:                                               ; preds = %28
  %32 = call ptr @PyErr_Occurred()
  %33 = icmp ne ptr %32, null
  br i1 %33, label %42, label %34

34:                                               ; preds = %31
  call void @llvm.lifetime.start.p0(i64 8, ptr %12) #9
  %35 = load ptr, ptr %5, align 8, !tbaa !14
  %36 = call ptr @get_hashlib_state(ptr noundef %35)
  store ptr %36, ptr %12, align 8, !tbaa !3
  %37 = load ptr, ptr %12, align 8, !tbaa !3
  %38 = getelementptr inbounds nuw %struct._hashlibstate, ptr %37, i32 0, i32 4
  %39 = load ptr, ptr %38, align 8, !tbaa !63
  %40 = load ptr, ptr %6, align 8, !tbaa !14
  %41 = call ptr (ptr, ptr, ...) @PyErr_Format(ptr noundef %39, ptr noundef @.str.118, ptr noundef %40)
  call void @llvm.lifetime.end.p0(i64 8, ptr %12) #9
  br label %42

42:                                               ; preds = %34, %31
  store ptr null, ptr %4, align 8
  store i32 1, ptr %13, align 4
  br label %59

43:                                               ; preds = %28
  %44 = load ptr, ptr %9, align 8, !tbaa !14
  %45 = call ptr @PyUnicode_AsUTF8(ptr noundef %44)
  store ptr %45, ptr %10, align 8, !tbaa !21
  %46 = load ptr, ptr %10, align 8, !tbaa !21
  %47 = icmp eq ptr %46, null
  br i1 %47, label %48, label %49

48:                                               ; preds = %43
  store ptr null, ptr %4, align 8
  store i32 1, ptr %13, align 4
  br label %59

49:                                               ; preds = %43
  %50 = load ptr, ptr %5, align 8, !tbaa !14
  %51 = load ptr, ptr %10, align 8, !tbaa !21
  %52 = load i32, ptr %7, align 4, !tbaa !19
  %53 = call ptr @py_digest_by_name(ptr noundef %50, ptr noundef %51, i32 noundef %52)
  store ptr %53, ptr %8, align 8, !tbaa !17
  %54 = load ptr, ptr %8, align 8, !tbaa !17
  %55 = icmp eq ptr %54, null
  br i1 %55, label %56, label %57

56:                                               ; preds = %49
  store ptr null, ptr %4, align 8
  store i32 1, ptr %13, align 4
  br label %59

57:                                               ; preds = %49
  %58 = load ptr, ptr %8, align 8, !tbaa !17
  store ptr %58, ptr %4, align 8
  store i32 1, ptr %13, align 4
  br label %59

59:                                               ; preds = %57, %56, %48, %42
  call void @llvm.lifetime.end.p0(i64 8, ptr %10) #9
  call void @llvm.lifetime.end.p0(i64 8, ptr %9) #9
  call void @llvm.lifetime.end.p0(i64 8, ptr %8) #9
  %60 = load ptr, ptr %4, align 8
  ret ptr %60
}