; Function Attrs: nounwind uwtable
define internal fastcc ptr @py_digest_by_digestmod(ptr noundef %0, ptr noundef %1) unnamed_addr #0 {
  %3 = getelementptr i8, ptr %1, i64 8
  %.val = load ptr, ptr %3, align 8, !tbaa !22
  %4 = getelementptr i8, ptr %.val, i64 168
  %.val20 = load i64, ptr %4, align 8, !tbaa !28
  %5 = and i64 %.val20, 268435456
  %.not = icmp eq i64 %5, 0
  br i1 %.not, label %6, label %.thread

6:                                                ; preds = %2
  %7 = tail call ptr @PyModule_GetState(ptr noundef %0) #9
  %8 = getelementptr inbounds nuw i8, ptr %7, i64 24
  %9 = load ptr, ptr %8, align 8, !tbaa !47
  %10 = tail call ptr @PyDict_GetItemWithError(ptr noundef %9, ptr noundef nonnull %1) #9
  %11 = icmp eq ptr %10, null
  br i1 %11, label %12, label %.thread

12:                                               ; preds = %6
  %13 = tail call ptr @PyErr_Occurred() #9
  %.not19 = icmp eq ptr %13, null
  br i1 %.not19, label %14, label %23

14:                                               ; preds = %12
  %15 = tail call ptr @PyModule_GetState(ptr noundef %0) #9
  %16 = getelementptr inbounds nuw i8, ptr %15, i64 32
  %17 = load ptr, ptr %16, align 8, !tbaa !48
  %18 = tail call ptr (ptr, ptr, ...) @PyErr_Format(ptr noundef %17, ptr noundef nonnull @.str.118, ptr noundef nonnull %1) #9
  br label %23

.thread:                                          ; preds = %2, %6
  %.01622 = phi ptr [ %10, %6 ], [ %1, %2 ]
  %19 = tail call ptr @PyUnicode_AsUTF8(ptr noundef nonnull %.01622) #9
  %20 = icmp eq ptr %19, null
  br i1 %20, label %23, label %21

21:                                               ; preds = %.thread
  %22 = tail call fastcc ptr @py_digest_by_name(ptr noundef %0, ptr noundef nonnull %19, i32 noundef 2)
  br label %23

23:                                               ; preds = %21, %.thread, %12, %14
  %.0 = phi ptr [ null, %14 ], [ null, %12 ], [ null, %.thread ], [ %22, %21 ]
  ret ptr %.0
}